target datalayout = "e-m:e-p270:32:32-p271:32:32-p272:64:64-i64:64-i128:128-f80:128-n8:16:32:64-S128"
target triple = "x86_64-pc-linux-gnu"

%struct.wc_Sha256 = type { [8 x i32], [16 x i32], i32, i32, i32, ptr, [8 x i8] }

; Function Attrs: inlinehint nounwind uwtable
define internal i32 @rotlFixed(i32 noundef %0, i32 noundef %1) #2 {
  %3 = alloca i32, align 4
  %4 = alloca i32, align 4
  store i32 %0, ptr %3, align 4, !tbaa !9
  store i32 %1, ptr %4, align 4, !tbaa !9
  %5 = load i32, ptr %3, align 4, !tbaa !9
  %6 = load i32, ptr %4, align 4, !tbaa !9
  %7 = shl i32 %5, %6
  %8 = load i32, ptr %3, align 4, !tbaa !9
  %9 = load i32, ptr %4, align 4, !tbaa !9
  %10 = zext i32 %9 to i64
  %11 = sub i64 32, %10
  %12 = trunc i64 %11 to i32
  %13 = lshr i32 %8, %12
  %14 = or i32 %7, %13
  ret i32 %14
}

; Function Attrs: inlinehint nounwind uwtable
define internal i32 @rotrFixed(i32 noundef %0, i32 noundef %1) #2 {
  %3 = alloca i32, align 4
  %4 = alloca i32, align 4
  store i32 %0, ptr %3, align 4, !tbaa !9
  store i32 %1, ptr %4, align 4, !tbaa !9
  %5 = load i32, ptr %3, align 4, !tbaa !9
  %6 = load i32, ptr %4, align 4, !tbaa !9
  %7 = lshr i32 %5, %6
  %8 = load i32, ptr %3, align 4, !tbaa !9
  %9 = load i32, ptr %4, align 4, !tbaa !9
  %10 = zext i32 %9 to i64
  %11 = sub i64 32, %10
  %12 = trunc i64 %11 to i32
  %13 = shl i32 %8, %12
  %14 = or i32 %7, %13
  ret i32 %14
}

; Function Attrs: inlinehint nounwind uwtable
define internal i32 @ByteReverseWord32(i32 noundef %0) #2 {
  %2 = alloca i32, align 4
  store i32 %0, ptr %2, align 4, !tbaa !9
  %3 = load i32, ptr %2, align 4, !tbaa !9
  %4 = call i32 @rotrFixed(i32 noundef %3, i32 noundef 8)
  %5 = and i32 %4, -16711936
  %6 = load i32, ptr %2, align 4, !tbaa !9
  %7 = call i32 @rotlFixed(i32 noundef %6, i32 noundef 8)
  %8 = and i32 %7, 16711935
  %9 = or i32 %5, %8
  ret i32 %9
}

; Function Attrs: inlinehint nounwind uwtable
define internal i32 @ctMaskWord32GTE(i32 noundef %0, i32 noundef %1) #2 {
  %3 = alloca i32, align 4
  %4 = alloca i32, align 4
  store i32 %0, ptr %3, align 4, !tbaa !9
  store i32 %1, ptr %4, align 4, !tbaa !9
  %5 = load i32, ptr %3, align 4, !tbaa !9
  %6 = zext i32 %5 to i64
  %7 = load i32, ptr %4, align 4, !tbaa !9
  %8 = zext i32 %7 to i64
  %9 = sub i64 %6, %8
  %10 = lshr i64 %9, 63
  %11 = sub i64 %10, 1
  %12 = trunc i64 %11 to i32
  ret i32 %12
}

; Function Attrs: inlinehint nounwind uwtable
define internal void @ByteReverseWords(ptr noundef %0, ptr noundef %1, i32 noundef %2) #2 {
  %4 = alloca ptr, align 8
  %5 = alloca ptr, align 8
  %6 = alloca i32, align 4
  %7 = alloca i32, align 4
  %8 = alloca i32, align 4
  %9 = alloca ptr, align 8
  %10 = alloca ptr, align 8
  %11 = alloca i32, align 4
  store ptr %0, ptr %4, align 8, !tbaa !18
  store ptr %1, ptr %5, align 8, !tbaa !18
  store i32 %2, ptr %6, align 4, !tbaa !9
  call void @llvm.lifetime.start.p0(i64 4, ptr %7) #5
  %12 = load ptr, ptr %5, align 8, !tbaa !18
  %13 = ptrtoint ptr %12 to i64
  %14 = and i64 %13, 3
  %15 = icmp eq i64 %14, 0
  br i1 %15, label %16, label %43

16:                                               ; preds = %3
  %17 = load ptr, ptr %4, align 8, !tbaa !18
  %18 = ptrtoint ptr %17 to i64
  %19 = and i64 %18, 3
  %20 = icmp eq i64 %19, 0
  br i1 %20, label %21, label %43

21:                                               ; preds = %16
  call void @llvm.lifetime.start.p0(i64 4, ptr %8) #5
  %22 = load i32, ptr %6, align 4, !tbaa !9
  %23 = udiv i32 %22, 4
  store i32 %23, ptr %8, align 4, !tbaa !9
  store i32 0, ptr %7, align 4, !tbaa !9
  br label %24

24:                                               ; preds = %39, %21
  %25 = load i32, ptr %7, align 4, !tbaa !9
  %26 = load i32, ptr %8, align 4, !tbaa !9
  %27 = icmp ult i32 %25, %26
  br i1 %27, label %28, label %42

28:                                               ; preds = %24
  %29 = load ptr, ptr %5, align 8, !tbaa !18
  %30 = load i32, ptr %7, align 4, !tbaa !9
  %31 = zext i32 %30 to i64
  %32 = getelementptr inbounds nuw i32, ptr %29, i64 %31
  %33 = load i32, ptr %32, align 4, !tbaa !9
  %34 = call i32 @ByteReverseWord32(i32 noundef %33)
  %35 = load ptr, ptr %4, align 8, !tbaa !18
  %36 = load i32, ptr %7, align 4, !tbaa !9
  %37 = zext i32 %36 to i64
  %38 = getelementptr inbounds nuw i32, ptr %35, i64 %37
  store i32 %34, ptr %38, align 4, !tbaa !9
  br label %39

39:                                               ; preds = %28
  %40 = load i32, ptr %7, align 4, !tbaa !9
  %41 = add i32 %40, 1
  store i32 %41, ptr %7, align 4, !tbaa !9
  br label %24, !llvm.loop !22

42:                                               ; preds = %24
  call void @llvm.lifetime.end.p0(i64 4, ptr %8) #5
  br label %67

43:                                               ; preds = %16, %3
  call void @llvm.lifetime.start.p0(i64 8, ptr %9) #5
  %44 = load ptr, ptr %5, align 8, !tbaa !18
  store ptr %44, ptr %9, align 8, !tbaa !16
  call void @llvm.lifetime.start.p0(i64 8, ptr %10) #5
  %45 = load ptr, ptr %4, align 8, !tbaa !18
  store ptr %45, ptr %10, align 8, !tbaa !16
  call void @llvm.lifetime.start.p0(i64 4, ptr %11) #5
  %46 = load i32, ptr %6, align 4, !tbaa !9
  %47 = and i32 %46, -4
  store i32 %47, ptr %6, align 4, !tbaa !9
  store i32 0, ptr %7, align 4, !tbaa !9
  br label %48

48:                                               ; preds = %63, %43
  %49 = load i32, ptr %7, align 4, !tbaa !9
  %50 = load i32, ptr %6, align 4, !tbaa !9
  %51 = icmp ult i32 %49, %50
  br i1 %51, label %52, label %66

52:                                               ; preds = %48
  %53 = load ptr, ptr %9, align 8, !tbaa !16
  %54 = load i32, ptr %7, align 4, !tbaa !9
  %55 = zext i32 %54 to i64
  %56 = getelementptr inbounds nuw i8, ptr %53, i64 %55
  call void @llvm.memcpy.p0.p0.i64(ptr align 4 %11, ptr align 1 %56, i64 4, i1 false)
  %57 = load i32, ptr %11, align 4, !tbaa !9
  %58 = call i32 @ByteReverseWord32(i32 noundef %57)
  store i32 %58, ptr %11, align 4, !tbaa !9
  %59 = load ptr, ptr %10, align 8, !tbaa !16
  %60 = load i32, ptr %7, align 4, !tbaa !9
  %61 = zext i32 %60 to i64
  %62 = getelementptr inbounds nuw i8, ptr %59, i64 %61
  call void @llvm.memcpy.p0.p0.i64(ptr align 1 %62, ptr align 4 %11, i64 4, i1 false)
  br label %63

63:                                               ; preds = %52
  %64 = load i32, ptr %7, align 4, !tbaa !9
  %65 = add i32 %64, 4
  store i32 %65, ptr %7, align 4, !tbaa !9
  br label %48, !llvm.loop !23

66:                                               ; preds = %48
  call void @llvm.lifetime.end.p0(i64 4, ptr %11) #5
  call void @llvm.lifetime.end.p0(i64 8, ptr %10) #5
  call void @llvm.lifetime.end.p0(i64 8, ptr %9) #5
  br label %67

67:                                               ; preds = %66, %42
  call void @llvm.lifetime.end.p0(i64 4, ptr %7) #5
  ret void
}

; Function Attrs: inlinehint nounwind uwtable
define internal i32 @min(i32 noundef %0, i32 noundef %1) #2 {
  %3 = alloca i32, align 4
  %4 = alloca i32, align 4
  %5 = alloca i32, align 4
  store i32 %0, ptr %3, align 4, !tbaa !9
  store i32 %1, ptr %4, align 4, !tbaa !9
  call void @llvm.lifetime.start.p0(i64 4, ptr %5) #5
  %6 = load i32, ptr %3, align 4, !tbaa !9
  %7 = load i32, ptr %4, align 4, !tbaa !9
  %8 = call i32 @ctMaskWord32GTE(i32 noundef %6, i32 noundef %7)
  store i32 %8, ptr %5, align 4, !tbaa !9
  %9 = load i32, ptr %3, align 4, !tbaa !9
  %10 = load i32, ptr %5, align 4, !tbaa !9
  %11 = xor i32 %10, -1
  %12 = and i32 %9, %11
  %13 = load i32, ptr %4, align 4, !tbaa !9
  %14 = load i32, ptr %5, align 4, !tbaa !9
  %15 = and i32 %13, %14
  %16 = or i32 %12, %15
  call void @llvm.lifetime.end.p0(i64 4, ptr %5) #5
  ret i32 %16
}

; Function Attrs: inlinehint nounwind uwtable
define internal void @AddLength(ptr noundef %0, i32 noundef %1) #2 {
  %3 = alloca ptr, align 8
  %4 = alloca i32, align 4
  %5 = alloca i32, align 4
  store ptr %0, ptr %3, align 8, !tbaa !3
  store i32 %1, ptr %4, align 4, !tbaa !9
  call void @llvm.lifetime.start.p0(i64 4, ptr %5) #5
  %6 = load ptr, ptr %3, align 8, !tbaa !3
  %7 = getelementptr inbounds nuw %struct.wc_Sha256, ptr %6, i32 0, i32 3
  %8 = load i32, ptr %7, align 4, !tbaa !14
  store i32 %8, ptr %5, align 4, !tbaa !9
  %9 = load i32, ptr %4, align 4, !tbaa !9
  %10 = load ptr, ptr %3, align 8, !tbaa !3
  %11 = getelementptr inbounds nuw %struct.wc_Sha256, ptr %10, i32 0, i32 3
  %12 = load i32, ptr %11, align 4, !tbaa !14
  %13 = add i32 %12, %9
  store i32 %13, ptr %11, align 4, !tbaa !14
  %14 = load i32, ptr %5, align 4, !tbaa !9
  %15 = icmp ult i32 %13, %14
  br i1 %15, label %16, label %21

16:                                               ; preds = %2
  %17 = load ptr, ptr %3, align 8, !tbaa !3
  %18 = getelementptr inbounds nuw %struct.wc_Sha256, ptr %17, i32 0, i32 4
  %19 = load i32, ptr %18, align 8, !tbaa !15
  %20 = add i32 %19, 1
  store i32 %20, ptr %18, align 8, !tbaa !15
  br label %21

21:                                               ; preds = %16, %2
  call void @llvm.lifetime.end.p0(i64 4, ptr %5) #5
  ret void
}

; Function Attrs: inlinehint nounwind uwtable
define internal i32 @Sha256Update(ptr noundef %0, ptr noundef %1, i32 noundef %2) #2 {
  %4 = alloca i32, align 4
  %5 = alloca ptr, align 8
  %6 = alloca ptr, align 8
  %7 = alloca i32, align 4
  %8 = alloca i32, align 4
  %9 = alloca i32, align 4
  %10 = alloca ptr, align 8
  %11 = alloca i32, align 4
  %12 = alloca ptr, align 8
  store ptr %0, ptr %5, align 8, !tbaa !3
  store ptr %1, ptr %6, align 8, !tbaa !16
  store i32 %2, ptr %7, align 4, !tbaa !9
  call void @llvm.lifetime.start.p0(i64 4, ptr %8) #5
  store i32 0, ptr %8, align 4, !tbaa !9
  call void @llvm.lifetime.start.p0(i64 4, ptr %9) #5
  call void @llvm.lifetime.start.p0(i64 8, ptr %10) #5
  %13 = load ptr, ptr %5, align 8, !tbaa !3
  %14 = getelementptr inbounds nuw %struct.wc_Sha256, ptr %13, i32 0, i32 2
  %15 = load i32, ptr %14, align 16, !tbaa !13
  %16 = icmp uge i32 %15, 64
  br i1 %16, label %17, label %18

17:                                               ; preds = %3
  store i32 -132, ptr %4, align 4
  store i32 1, ptr %11, align 4
  br label %120

18:                                               ; preds = %3
  %19 = load ptr, ptr %5, align 8, !tbaa !3
  %20 = load i32, ptr %7, align 4, !tbaa !9
  call void @AddLength(ptr noundef %19, i32 noundef %20)
  %21 = load ptr, ptr %5, align 8, !tbaa !3
  %22 = getelementptr inbounds nuw %struct.wc_Sha256, ptr %21, i32 0, i32 1
  %23 = getelementptr inbounds [16 x i32], ptr %22, i64 0, i64 0
  store ptr %23, ptr %10, align 8, !tbaa !16
  %24 = load ptr, ptr %5, align 8, !tbaa !3
  %25 = getelementptr inbounds nuw %struct.wc_Sha256, ptr %24, i32 0, i32 2
  %26 = load i32, ptr %25, align 16, !tbaa !13
  %27 = icmp ugt i32 %26, 0
  br i1 %27, label %28, label %78

28:                                               ; preds = %18
  %29 = load i32, ptr %7, align 4, !tbaa !9
  %30 = load ptr, ptr %5, align 8, !tbaa !3
  %31 = getelementptr inbounds nuw %struct.wc_Sha256, ptr %30, i32 0, i32 2
  %32 = load i32, ptr %31, align 16, !tbaa !13
  %33 = sub i32 64, %32
  %34 = call i32 @min(i32 noundef %29, i32 noundef %33)
  store i32 %34, ptr %9, align 4, !tbaa !9
  %35 = load ptr, ptr %10, align 8, !tbaa !16
  %36 = load ptr, ptr %5, align 8, !tbaa !3
  %37 = getelementptr inbounds nuw %struct.wc_Sha256, ptr %36, i32 0, i32 2
  %38 = load i32, ptr %37, align 16, !tbaa !13
  %39 = zext i32 %38 to i64
  %40 = getelementptr inbounds nuw i8, ptr %35, i64 %39
  %41 = load ptr, ptr %6, align 8, !tbaa !16
  %42 = load i32, ptr %9, align 4, !tbaa !9
  %43 = zext i32 %42 to i64
  call void @llvm.memcpy.p0.p0.i64(ptr align 1 %40, ptr align 1 %41, i64 %43, i1 false)
  %44 = load i32, ptr %9, align 4, !tbaa !9
  %45 = load ptr, ptr %5, align 8, !tbaa !3
  %46 = getelementptr inbounds nuw %struct.wc_Sha256, ptr %45, i32 0, i32 2
  %47 = load i32, ptr %46, align 16, !tbaa !13
  %48 = add i32 %47, %44
  store i32 %48, ptr %46, align 16, !tbaa !13
  %49 = load i32, ptr %9, align 4, !tbaa !9
  %50 = load ptr, ptr %6, align 8, !tbaa !16
  %51 = zext i32 %49 to i64
  %52 = getelementptr inbounds nuw i8, ptr %50, i64 %51
  store ptr %52, ptr %6, align 8, !tbaa !16
  %53 = load i32, ptr %9, align 4, !tbaa !9
  %54 = load i32, ptr %7, align 4, !tbaa !9
  %55 = sub i32 %54, %53
  store i32 %55, ptr %7, align 4, !tbaa !9
  %56 = load ptr, ptr %5, align 8, !tbaa !3
  %57 = getelementptr inbounds nuw %struct.wc_Sha256, ptr %56, i32 0, i32 2
  %58 = load i32, ptr %57, align 16, !tbaa !13
  %59 = icmp eq i32 %58, 64
  br i1 %59, label %60, label %77

60:                                               ; preds = %28
  %61 = load ptr, ptr %5, align 8, !tbaa !3
  %62 = getelementptr inbounds nuw %struct.wc_Sha256, ptr %61, i32 0, i32 1
  %63 = getelementptr inbounds [16 x i32], ptr %62, i64 0, i64 0
  %64 = load ptr, ptr %5, align 8, !tbaa !3
  %65 = getelementptr inbounds nuw %struct.wc_Sha256, ptr %64, i32 0, i32 1
  %66 = getelementptr inbounds [16 x i32], ptr %65, i64 0, i64 0
  call void @ByteReverseWords(ptr noundef %63, ptr noundef %66, i32 noundef 64)
  %67 = load ptr, ptr %5, align 8, !tbaa !3
  %68 = load ptr, ptr %10, align 8, !tbaa !16
  %69 = call i32 @Transform_Sha256(ptr noundef %67, ptr noundef %68)
  store i32 %69, ptr %8, align 4, !tbaa !9
  %70 = load i32, ptr %8, align 4, !tbaa !9
  %71 = icmp eq i32 %70, 0
  br i1 %71, label %72, label %75

72:                                               ; preds = %60
  %73 = load ptr, ptr %5, align 8, !tbaa !3
  %74 = getelementptr inbounds nuw %struct.wc_Sha256, ptr %73, i32 0, i32 2
  store i32 0, ptr %74, align 16, !tbaa !13
  br label %76

75:                                               ; preds = %60
  store i32 0, ptr %7, align 4, !tbaa !9
  br label %76

76:                                               ; preds = %75, %72
  br label %77

77:                                               ; preds = %76, %28
  br label %78

78:                                               ; preds = %77, %18
  br label %79

79:                                               ; preds = %103, %78
  %80 = load i32, ptr %7, align 4, !tbaa !9
  %81 = icmp uge i32 %80, 64
  br i1 %81, label %82, label %104

82:                                               ; preds = %79
  call void @llvm.lifetime.start.p0(i64 8, ptr %12) #5
  %83 = load ptr, ptr %5, align 8, !tbaa !3
  %84 = getelementptr inbounds nuw %struct.wc_Sha256, ptr %83, i32 0, i32 1
  %85 = getelementptr inbounds [16 x i32], ptr %84, i64 0, i64 0
  store ptr %85, ptr %12, align 8, !tbaa !18
  %86 = load ptr, ptr %12, align 8, !tbaa !18
  %87 = load ptr, ptr %6, align 8, !tbaa !16
  call void @llvm.memcpy.p0.p0.i64(ptr align 4 %86, ptr align 1 %87, i64 64, i1 false)
  %88 = load ptr, ptr %6, align 8, !tbaa !16
  %89 = getelementptr inbounds i8, ptr %88, i64 64
  store ptr %89, ptr %6, align 8, !tbaa !16
  %90 = load i32, ptr %7, align 4, !tbaa !9
  %91 = sub i32 %90, 64
  store i32 %91, ptr %7, align 4, !tbaa !9
  %92 = load ptr, ptr %12, align 8, !tbaa !18
  %93 = load ptr, ptr %12, align 8, !tbaa !18
  call void @ByteReverseWords(ptr noundef %92, ptr noundef %93, i32 noundef 64)
  %94 = load ptr, ptr %5, align 8, !tbaa !3
  %95 = load ptr, ptr %12, align 8, !tbaa !18
  %96 = call i32 @Transform_Sha256(ptr noundef %94, ptr noundef %95)
  store i32 %96, ptr %8, align 4, !tbaa !9
  %97 = load i32, ptr %8, align 4, !tbaa !9
  %98 = icmp ne i32 %97, 0
  br i1 %98, label %99, label %100

99:                                               ; preds = %82
  store i32 3, ptr %11, align 4
  br label %101

100:                                              ; preds = %82
  store i32 0, ptr %11, align 4
  br label %101

101:                                              ; preds = %100, %99
  call void @llvm.lifetime.end.p0(i64 8, ptr %12) #5
  %102 = load i32, ptr %11, align 4
  switch i32 %102, label %122 [
    i32 0, label %103
    i32 3, label %104
  ]

103:                                              ; preds = %101
  br label %79, !llvm.loop !20

104:                                              ; preds = %101, %79
  %105 = load i32, ptr %8, align 4, !tbaa !9
  %106 = icmp eq i32 %105, 0
  br i1 %106, label %107, label %118

107:                                              ; preds = %104
  %108 = load i32, ptr %7, align 4, !tbaa !9
  %109 = icmp ugt i32 %108, 0
  br i1 %109, label %110, label %118

110:                                              ; preds = %107
  %111 = load ptr, ptr %10, align 8, !tbaa !16
  %112 = load ptr, ptr %6, align 8, !tbaa !16
  %113 = load i32, ptr %7, align 4, !tbaa !9
  %114 = zext i32 %113 to i64
  call void @llvm.memcpy.p0.p0.i64(ptr align 1 %111, ptr align 1 %112, i64 %114, i1 false)
  %115 = load i32, ptr %7, align 4, !tbaa !9
  %116 = load ptr, ptr %5, align 8, !tbaa !3
  %117 = getelementptr inbounds nuw %struct.wc_Sha256, ptr %116, i32 0, i32 2
  store i32 %115, ptr %117, align 16, !tbaa !13
  br label %118

118:                                              ; preds = %110, %107, %104
  %119 = load i32, ptr %8, align 4, !tbaa !9
  store i32 %119, ptr %4, align 4
  store i32 1, ptr %11, align 4
  br label %120

120:                                              ; preds = %118, %17
  call void @llvm.lifetime.end.p0(i64 8, ptr %10) #5
  call void @llvm.lifetime.end.p0(i64 4, ptr %9) #5
  call void @llvm.lifetime.end.p0(i64 4, ptr %8) #5
  %121 = load i32, ptr %4, align 4
  ret i32 %121

122:                                              ; preds = %101
  unreachable
}