; Function Attrs: inlinehint nofree norecurse nosync nounwind memory(argmem: readwrite) uwtable
define internal fastcc range(i32 -132, 1) i32 @Sha256Update(ptr noundef nonnull %0, ptr noundef nonnull readonly captures(none) %1, i32 noundef %2) unnamed_addr #3 {
  %4 = getelementptr inbounds nuw i8, ptr %0, i64 96
  %5 = load i32, ptr %4, align 16, !tbaa !7
  %6 = icmp ugt i32 %5, 63
  br i1 %6, label %55, label %7

7:                                                ; preds = %3
  %8 = getelementptr inbounds nuw i8, ptr %0, i64 100
  %9 = load i32, ptr %8, align 4, !tbaa !10
  %10 = add i32 %9, %2
  store i32 %10, ptr %8, align 4, !tbaa !10
  %11 = icmp ult i32 %10, %9
  br i1 %11, label %12, label %AddLength.exit

12:                                               ; preds = %7
  %13 = getelementptr inbounds nuw i8, ptr %0, i64 104
  %14 = load i32, ptr %13, align 8, !tbaa !11
  %15 = add i32 %14, 1
  store i32 %15, ptr %13, align 8, !tbaa !11
  br label %AddLength.exit

AddLength.exit:                                   ; preds = %7, %12
  %16 = getelementptr inbounds nuw i8, ptr %0, i64 32
  %.not = icmp eq i32 %5, 0
  br i1 %.not, label %37, label %17

17:                                               ; preds = %AddLength.exit
  %18 = sub nuw nsw i32 64, %5
  %19 = tail call noundef i32 @llvm.umin.i32(i32 %2, i32 range(i32 65, 64) %18)
  %20 = zext nneg i32 %5 to i64
  %21 = getelementptr inbounds nuw i8, ptr %16, i64 %20
  %22 = zext nneg i32 %19 to i64
  tail call void @llvm.memcpy.p0.p0.i64(ptr nonnull align 1 %21, ptr nonnull align 1 %1, i64 %22, i1 false)
  %23 = load i32, ptr %4, align 16, !tbaa !7
  %24 = add i32 %23, %19
  store i32 %24, ptr %4, align 16, !tbaa !7
  %25 = getelementptr inbounds nuw i8, ptr %1, i64 %22
  %26 = sub i32 %2, %19
  %27 = icmp eq i32 %24, 64
  br i1 %27, label %28, label %37

28:                                               ; preds = %17
  %29 = ptrtoint ptr %16 to i64
  %30 = and i64 %29, 3
  %or.cond.i = icmp eq i64 %30, 0
  br i1 %or.cond.i, label %.lr.ph26.i, label %.lr.ph.i

.lr.ph26.i:                                       ; preds = %28, %.lr.ph26.i
  %indvars.iv30.i = phi i64 [ %indvars.iv.next31.i, %.lr.ph26.i ], [ 0, %28 ]
  %31 = getelementptr inbounds nuw i32, ptr %16, i64 %indvars.iv30.i
  %32 = load i32, ptr %31, align 4, !tbaa !3
  %33 = tail call noundef i32 @llvm.bswap.i32(i32 %32)
  store i32 %33, ptr %31, align 4, !tbaa !3
  %indvars.iv.next31.i = add nuw nsw i64 %indvars.iv30.i, 1
  %exitcond.not.i = icmp eq i64 %indvars.iv.next31.i, 16
  br i1 %exitcond.not.i, label %ByteReverseWords.exit, label %.lr.ph26.i, !llvm.loop !13

.lr.ph.i:                                         ; preds = %28, %.lr.ph.i
  %indvars.iv.i = phi i64 [ %indvars.iv.next.i, %.lr.ph.i ], [ 0, %28 ]
  %34 = getelementptr inbounds nuw i8, ptr %16, i64 %indvars.iv.i
  %.0.copyload.i = load i32, ptr %34, align 1
  %35 = tail call noundef i32 @llvm.bswap.i32(i32 %.0.copyload.i)
  store i32 %35, ptr %34, align 1
  %indvars.iv.next.i = add nuw nsw i64 %indvars.iv.i, 4
  %36 = icmp samesign ult i64 %indvars.iv.i, 60
  br i1 %36, label %.lr.ph.i, label %ByteReverseWords.exit, !llvm.loop !15

ByteReverseWords.exit:                            ; preds = %.lr.ph.i, %.lr.ph26.i
  tail call fastcc void @Transform_Sha256(ptr noundef %0, ptr noundef %16)
  store i32 0, ptr %4, align 16, !tbaa !7
  br label %37

37:                                               ; preds = %17, %ByteReverseWords.exit, %AddLength.exit
  %.047 = phi i32 [ %26, %ByteReverseWords.exit ], [ %26, %17 ], [ %2, %AddLength.exit ]
  %.046 = phi ptr [ %25, %ByteReverseWords.exit ], [ %25, %17 ], [ %1, %AddLength.exit ]
  %38 = icmp ugt i32 %.047, 63
  br i1 %38, label %.lr.ph, label %._crit_edge

.lr.ph:                                           ; preds = %37
  %39 = ptrtoint ptr %16 to i64
  %40 = and i64 %39, 3
  %or.cond.i57 = icmp eq i64 %40, 0
  br i1 %or.cond.i57, label %.lr.ph26.i64.preheader.us, label %.lr.ph.i59.preheader

.lr.ph26.i64.preheader.us:                        ; preds = %.lr.ph, %ByteReverseWords.exit68.loopexit.us
  %.172.us = phi ptr [ %41, %ByteReverseWords.exit68.loopexit.us ], [ %.046, %.lr.ph ]
  %.14871.us = phi i32 [ %45, %ByteReverseWords.exit68.loopexit.us ], [ %.047, %.lr.ph ]
  tail call void @llvm.memcpy.p0.p0.i64(ptr noundef nonnull align 4 dereferenceable(64) %16, ptr noundef nonnull align 1 dereferenceable(64) %.172.us, i64 64, i1 false)
  %41 = getelementptr inbounds nuw i8, ptr %.172.us, i64 64
  br label %.lr.ph26.i64.us

.lr.ph26.i64.us:                                  ; preds = %.lr.ph26.i64.preheader.us, %.lr.ph26.i64.us
  %indvars.iv30.i65.us = phi i64 [ %indvars.iv.next31.i66.us, %.lr.ph26.i64.us ], [ 0, %.lr.ph26.i64.preheader.us ]
  %42 = getelementptr inbounds nuw i32, ptr %16, i64 %indvars.iv30.i65.us
  %43 = load i32, ptr %42, align 4, !tbaa !3
  %44 = tail call noundef i32 @llvm.bswap.i32(i32 %43)
  store i32 %44, ptr %42, align 4, !tbaa !3
  %indvars.iv.next31.i66.us = add nuw nsw i64 %indvars.iv30.i65.us, 1
  %exitcond.not.i67.us = icmp eq i64 %indvars.iv.next31.i66.us, 16
  br i1 %exitcond.not.i67.us, label %ByteReverseWords.exit68.loopexit.us, label %.lr.ph26.i64.us, !llvm.loop !13

ByteReverseWords.exit68.loopexit.us:              ; preds = %.lr.ph26.i64.us
  %45 = add i32 %.14871.us, -64
  tail call fastcc void @Transform_Sha256(ptr noundef %0, ptr noundef %16)
  %46 = icmp ugt i32 %45, 63
  br i1 %46, label %.lr.ph26.i64.preheader.us, label %._crit_edge

.lr.ph.i59.preheader:                             ; preds = %.lr.ph, %ByteReverseWords.exit68.loopexit69
  %.172 = phi ptr [ %47, %ByteReverseWords.exit68.loopexit69 ], [ %.046, %.lr.ph ]
  %.14871 = phi i32 [ %51, %ByteReverseWords.exit68.loopexit69 ], [ %.047, %.lr.ph ]
  tail call void @llvm.memcpy.p0.p0.i64(ptr noundef nonnull align 4 dereferenceable(64) %16, ptr noundef nonnull align 1 dereferenceable(64) %.172, i64 64, i1 false)
  %47 = getelementptr inbounds nuw i8, ptr %.172, i64 64
  br label %.lr.ph.i59

.lr.ph.i59:                                       ; preds = %.lr.ph.i59.preheader, %.lr.ph.i59
  %indvars.iv.i60 = phi i64 [ %indvars.iv.next.i62, %.lr.ph.i59 ], [ 0, %.lr.ph.i59.preheader ]
  %48 = getelementptr inbounds nuw i8, ptr %16, i64 %indvars.iv.i60
  %.0.copyload.i61 = load i32, ptr %48, align 1
  %49 = tail call noundef i32 @llvm.bswap.i32(i32 %.0.copyload.i61)
  store i32 %49, ptr %48, align 1
  %indvars.iv.next.i62 = add nuw nsw i64 %indvars.iv.i60, 4
  %50 = icmp samesign ult i64 %indvars.iv.i60, 60
  br i1 %50, label %.lr.ph.i59, label %ByteReverseWords.exit68.loopexit69, !llvm.loop !15

ByteReverseWords.exit68.loopexit69:               ; preds = %.lr.ph.i59
  %51 = add i32 %.14871, -64
  tail call fastcc void @Transform_Sha256(ptr noundef %0, ptr noundef %16)
  %52 = icmp ugt i32 %51, 63
  br i1 %52, label %.lr.ph.i59.preheader, label %._crit_edge

._crit_edge:                                      ; preds = %ByteReverseWords.exit68.loopexit69, %ByteReverseWords.exit68.loopexit.us, %37
  %.148.lcssa = phi i32 [ %.047, %37 ], [ %45, %ByteReverseWords.exit68.loopexit.us ], [ %51, %ByteReverseWords.exit68.loopexit69 ]
  %.1.lcssa = phi ptr [ %.046, %37 ], [ %41, %ByteReverseWords.exit68.loopexit.us ], [ %47, %ByteReverseWords.exit68.loopexit69 ]
  %.not56 = icmp eq i32 %.148.lcssa, 0
  br i1 %.not56, label %55, label %53

53:                                               ; preds = %._crit_edge
  %54 = zext nneg i32 %.148.lcssa to i64
  tail call void @llvm.memcpy.p0.p0.i64(ptr nonnull align 1 %16, ptr align 1 %.1.lcssa, i64 %54, i1 false)
  store i32 %.148.lcssa, ptr %4, align 16, !tbaa !7
  br label %55

55:                                               ; preds = %._crit_edge, %53, %3
  %.0 = phi i32 [ -132, %3 ], [ 0, %53 ], [ 0, %._crit_edge ]
  ret i32 %.0
}